; Function Attrs: mustprogress nofree norecurse nosync nounwind willreturn memory(read, inaccessiblemem: none) uwtable
define dso_local range(i32 0, 2) i32 @Curl_conn_sockindex(ptr noundef readonly %0, i32 noundef %1) local_unnamed_addr #6 {
  %.not = icmp eq ptr %0, null
  br i1 %.not, label %12, label %3

3:                                                ; preds = %2
  %4 = getelementptr inbounds nuw i8, ptr %0, i64 24
  %5 = load ptr, ptr %4, align 8, !tbaa !56
  %6 = icmp ne ptr %5, null
  %7 = icmp ne i32 %1, -1
  %or.cond = and i1 %7, %6
  br i1 %or.cond, label %8, label %12

8:                                                ; preds = %3
  %9 = getelementptr inbounds nuw i8, ptr %5, i64 572
  %10 = load i32, ptr %9, align 4, !tbaa !44
  %11 = icmp eq i32 %1, %10
  br i1 %11, label %13, label %12

12:                                               ; preds = %8, %3, %2
  br label %13

13:                                               ; preds = %8, %12
  %.0 = phi i32 [ 0, %12 ], [ 1, %8 ]
  ret i32 %.0
}